; Function Attrs: mustprogress uwtable
define void @_ZN5Ipopt10GenTMatrix9SetValuesEPKd(ptr noundef nonnull align 8 dereferenceable(89) %0, ptr noundef %1) local_unnamed_addr #0 align 2 {
  %3 = getelementptr inbounds i8, ptr %0, i64 72
  %4 = load ptr, ptr %3, align 8
  %5 = getelementptr inbounds i8, ptr %4, i64 20
  %6 = load i32, ptr %5, align 4
  %7 = getelementptr inbounds i8, ptr %0, i64 80
  %8 = load ptr, ptr %7, align 8
  tail call void @_ZN5Ipopt10IpBlasCopyEiPKdiPdi(i32 noundef %6, ptr noundef %1, i32 noundef 1, ptr noundef %8, i32 noundef 1)
  %9 = getelementptr inbounds i8, ptr %0, i64 88
  store i8 1, ptr %9, align 8
  tail call void @_ZN5Ipopt12TaggedObject13ObjectChangedEv(ptr noundef nonnull align 8 dereferenceable(56) %0)
  ret void
}